; Function Attrs: nounwind uwtable
define internal noundef i32 @usm_read_close(ptr noundef readonly captures(none) %0) #2 {
  %2 = getelementptr inbounds nuw i8, ptr %0, i64 24
  %3 = load ptr, ptr %2, align 8, !tbaa !28
  %4 = getelementptr inbounds nuw i8, ptr %3, i64 57360
  tail call void @av_freep(ptr noundef nonnull %4) #8
  %5 = getelementptr inbounds nuw i8, ptr %3, i64 57368
  store i32 0, ptr %5, align 8, !tbaa !80
  ret i32 0
}